; Function Attrs: mustprogress nofree norecurse nosync nounwind willreturn memory(read, inaccessiblemem: none) uwtable
define hidden noundef nonnull ptr @_ZNK11ConstMethod27exception_table_length_addrEv(ptr noundef nonnull readonly align 8 dereferenceable(52) %0) local_unnamed_addr #7 align 2 {
  %2 = getelementptr inbounds i8, ptr %0, i64 28
  %3 = load i32, ptr %2, align 4
  %4 = and i32 %3, 2
  %.not = icmp eq i32 %4, 0
  %5 = and i32 %3, 32
  %.not7 = icmp eq i32 %5, 0
  %6 = and i32 %3, 16
  %.not8 = icmp eq i32 %6, 0
  %7 = lshr i32 %3, 7
  %.lobit.i3 = and i32 %7, 1
  %8 = lshr i32 %3, 8
  %9 = and i32 %8, 1
  %.1.i4 = add nuw nsw i32 %.lobit.i3, %9
  %10 = lshr i32 %3, 9
  %11 = and i32 %10, 1
  %.2.i5 = add nuw nsw i32 %.1.i4, %11
  %12 = lshr i32 %3, 10
  %13 = and i32 %12, 1
  %.3.i6 = add nuw nsw i32 %.2.i5, %13
  %14 = getelementptr inbounds i8, ptr %0, i64 24
  %15 = load i32, ptr %14, align 8
  %16 = sext i32 %15 to i64
  %17 = getelementptr inbounds i64, ptr %0, i64 %16
  %18 = zext nneg i32 %.3.i6 to i64
  %19 = sub nsw i64 0, %18
  %20 = getelementptr inbounds ptr, ptr %17, i64 %19
  br i1 %.not, label %38, label %21

21:                                               ; preds = %1
  br i1 %.not7, label %28, label %22

22:                                               ; preds = %21
  %..i.i.i.i = select i1 %.not8, i64 -2, i64 -4
  %23 = getelementptr inbounds i8, ptr %20, i64 %..i.i.i.i
  %24 = load i16, ptr %23, align 2
  %25 = zext i16 %24 to i64
  %.idx.i.i.i = mul nsw i64 %25, -4
  %26 = getelementptr inbounds i8, ptr %23, i64 %.idx.i.i.i
  %27 = getelementptr inbounds i8, ptr %26, i64 -2
  br label %_ZNK11ConstMethod24checked_exceptions_startEv.exit

28:                                               ; preds = %21
  br i1 %.not8, label %31, label %29

29:                                               ; preds = %28
  %30 = getelementptr inbounds i8, ptr %20, i64 -4
  br label %_ZNK11ConstMethod24checked_exceptions_startEv.exit

31:                                               ; preds = %28
  %32 = getelementptr inbounds i8, ptr %20, i64 -2
  br label %_ZNK11ConstMethod24checked_exceptions_startEv.exit

_ZNK11ConstMethod24checked_exceptions_startEv.exit: ; preds = %22, %29, %31
  %.0.i.i = phi ptr [ %27, %22 ], [ %30, %29 ], [ %32, %31 ]
  %33 = load i16, ptr %.0.i.i, align 2
  %34 = zext i16 %33 to i64
  %35 = sub nsw i64 0, %34
  %36 = getelementptr inbounds i16, ptr %.0.i.i, i64 %35
  %37 = getelementptr inbounds i8, ptr %36, i64 -2
  br label %50

38:                                               ; preds = %1
  br i1 %.not7, label %45, label %39

39:                                               ; preds = %38
  %..i.i = select i1 %.not8, i64 -2, i64 -4
  %40 = getelementptr inbounds i8, ptr %20, i64 %..i.i
  %41 = load i16, ptr %40, align 2
  %42 = zext i16 %41 to i64
  %.idx.i = mul nsw i64 %42, -4
  %43 = getelementptr inbounds i8, ptr %40, i64 %.idx.i
  %44 = getelementptr inbounds i8, ptr %43, i64 -2
  br label %50

45:                                               ; preds = %38
  br i1 %.not8, label %48, label %46

46:                                               ; preds = %45
  %47 = getelementptr inbounds i8, ptr %20, i64 -4
  br label %50

48:                                               ; preds = %45
  %49 = getelementptr inbounds i8, ptr %20, i64 -2
  br label %50

50:                                               ; preds = %46, %48, %39, %_ZNK11ConstMethod24checked_exceptions_startEv.exit
  %.0 = phi ptr [ %37, %_ZNK11ConstMethod24checked_exceptions_startEv.exit ], [ %44, %39 ], [ %47, %46 ], [ %49, %48 ]
  ret ptr %.0
}